; Function Attrs: mustprogress uwtable
define hidden void @_ZNK4cvc58internal7Integer21ceilingDivideQuotientERKS1_(ptr dead_on_unwind noalias writable sret(%"class.cvc5::internal::Integer") align 8 %0, ptr noundef nonnull align 8 dereferenceable(16) %1, ptr noundef nonnull align 8 dereferenceable(16) %2) local_unnamed_addr #0 align 2 personality ptr @__gxx_personality_v0 {
  %4 = alloca %class.__gmp_expr, align 8
  call void @llvm.lifetime.start.p0(i64 16, ptr nonnull %4) #16
  call void @__gmpz_init(ptr noundef nonnull align 8 dereferenceable(16) %4) #16
  invoke void @__gmpz_cdiv_q(ptr noundef nonnull %4, ptr noundef nonnull %1, ptr noundef nonnull %2)
          to label %5 unwind label %9

5:                                                ; preds = %3
  invoke void @__gmpz_init_set(ptr noundef nonnull align 8 dereferenceable(16) %0, ptr noundef nonnull align 8 dereferenceable(16) %4)
          to label %_ZN4cvc58internal7IntegerC2ERK10__gmp_exprIA1_12__mpz_structS4_E.exit unwind label %9

_ZN4cvc58internal7IntegerC2ERK10__gmp_exprIA1_12__mpz_structS4_E.exit: ; preds = %5
  invoke void @__gmpz_clear(ptr noundef nonnull align 8 dereferenceable(16) %4)
          to label %_ZN10__gmp_exprIA1_12__mpz_structS1_ED2Ev.exit unwind label %6

6:                                                ; preds = %_ZN4cvc58internal7IntegerC2ERK10__gmp_exprIA1_12__mpz_structS4_E.exit
  %7 = landingpad { ptr, i32 }
          catch ptr null
  %8 = extractvalue { ptr, i32 } %7, 0
  call void @__clang_call_terminate(ptr %8) #19
  unreachable

_ZN10__gmp_exprIA1_12__mpz_structS1_ED2Ev.exit:   ; preds = %_ZN4cvc58internal7IntegerC2ERK10__gmp_exprIA1_12__mpz_structS4_E.exit
  call void @llvm.lifetime.end.p0(i64 16, ptr nonnull %4) #16
  ret void

9:                                                ; preds = %5, %3
  %10 = landingpad { ptr, i32 }
          cleanup
  invoke void @__gmpz_clear(ptr noundef nonnull align 8 dereferenceable(16) %4)
          to label %_ZN10__gmp_exprIA1_12__mpz_structS1_ED2Ev.exit3 unwind label %11

11:                                               ; preds = %9
  %12 = landingpad { ptr, i32 }
          catch ptr null
  %13 = extractvalue { ptr, i32 } %12, 0
  call void @__clang_call_terminate(ptr %13) #19
  unreachable

_ZN10__gmp_exprIA1_12__mpz_structS1_ED2Ev.exit3:  ; preds = %9
  call void @llvm.lifetime.end.p0(i64 16, ptr nonnull %4) #16
  resume { ptr, i32 } %10
}